target datalayout = "e-m:e-p270:32:32-p271:32:32-p272:64:64-i64:64-i128:128-f80:128-n8:16:32:64-S128"
target triple = "x86_64-pc-linux-gnu"

%struct.TuplesortPublic = type { ptr, ptr, ptr, ptr, ptr, ptr, ptr, ptr, ptr, i8, i32, ptr, ptr, i32, i8, ptr }
%struct.SortTuple = type { ptr, i64, i8, i32 }
%struct.RelationData = type { %struct.RelFileLocator, ptr, i32, i32, i8, i8, i8, i8, i8, i32, i32, i32, i32, ptr, ptr, i32, %struct.LockInfoData, ptr, ptr, ptr, ptr, ptr, i8, ptr, ptr, ptr, ptr, ptr, ptr, i32, ptr, i8, ptr, ptr, i32, i8, i32, ptr, i8, ptr, ptr, ptr, ptr, ptr, ptr, ptr, i32, ptr, ptr, ptr, ptr, ptr, ptr, ptr, ptr, ptr, ptr, ptr, ptr, ptr, ptr, ptr, ptr, ptr, ptr, ptr, i32, i8, ptr }
%struct.RelFileLocator = type { i32, i32, i32 }
%struct.LockInfoData = type { %struct.LockRelId }
%struct.LockRelId = type { i32, i32 }
%struct.TuplesortIndexArg = type { ptr, ptr }

; Function Attrs: nounwind uwtable
define internal void @removeabbrev_index(ptr noundef %0, ptr noundef %1, i32 noundef %2) #0 {
  %4 = alloca ptr, align 8
  %5 = alloca ptr, align 8
  %6 = alloca i32, align 4
  %7 = alloca ptr, align 8
  %8 = alloca ptr, align 8
  %9 = alloca i32, align 4
  %10 = alloca ptr, align 8
  store ptr %0, ptr %4, align 8
  store ptr %1, ptr %5, align 8
  store i32 %2, ptr %6, align 4
  call void @llvm.lifetime.start.p0(i64 8, ptr %7) #6
  %11 = load ptr, ptr %4, align 8
  store ptr %11, ptr %7, align 8
  call void @llvm.lifetime.start.p0(i64 8, ptr %8) #6
  %12 = load ptr, ptr %7, align 8
  %13 = getelementptr inbounds nuw %struct.TuplesortPublic, ptr %12, i32 0, i32 15
  %14 = load ptr, ptr %13, align 8
  store ptr %14, ptr %8, align 8
  call void @llvm.lifetime.start.p0(i64 4, ptr %9) #6
  store i32 0, ptr %9, align 4
  br label %15

15:                                               ; preds = %43, %3
  %16 = load i32, ptr %9, align 4
  %17 = load i32, ptr %6, align 4
  %18 = icmp slt i32 %16, %17
  br i1 %18, label %19, label %46

19:                                               ; preds = %15
  call void @llvm.lifetime.start.p0(i64 8, ptr %10) #6
  %20 = load ptr, ptr %5, align 8
  %21 = load i32, ptr %9, align 4
  %22 = sext i32 %21 to i64
  %23 = getelementptr inbounds %struct.SortTuple, ptr %20, i64 %22
  %24 = getelementptr inbounds nuw %struct.SortTuple, ptr %23, i32 0, i32 0
  %25 = load ptr, ptr %24, align 8
  store ptr %25, ptr %10, align 8
  %26 = load ptr, ptr %10, align 8
  %27 = load ptr, ptr %8, align 8
  %28 = getelementptr inbounds nuw %struct.TuplesortIndexArg, ptr %27, i32 0, i32 1
  %29 = load ptr, ptr %28, align 8
  %30 = getelementptr inbounds nuw %struct.RelationData, ptr %29, i32 0, i32 14
  %31 = load ptr, ptr %30, align 8
  %32 = load ptr, ptr %5, align 8
  %33 = load i32, ptr %9, align 4
  %34 = sext i32 %33 to i64
  %35 = getelementptr inbounds %struct.SortTuple, ptr %32, i64 %34
  %36 = getelementptr inbounds nuw %struct.SortTuple, ptr %35, i32 0, i32 2
  %37 = call i64 @index_getattr(ptr noundef %26, i32 noundef 1, ptr noundef %31, ptr noundef %36)
  %38 = load ptr, ptr %5, align 8
  %39 = load i32, ptr %9, align 4
  %40 = sext i32 %39 to i64
  %41 = getelementptr inbounds %struct.SortTuple, ptr %38, i64 %40
  %42 = getelementptr inbounds nuw %struct.SortTuple, ptr %41, i32 0, i32 1
  store i64 %37, ptr %42, align 8
  call void @llvm.lifetime.end.p0(i64 8, ptr %10) #6
  br label %43

43:                                               ; preds = %19
  %44 = load i32, ptr %9, align 4
  %45 = add i32 %44, 1
  store i32 %45, ptr %9, align 4
  br label %15, !llvm.loop !15

46:                                               ; preds = %15
  call void @llvm.lifetime.end.p0(i64 4, ptr %9) #6
  call void @llvm.lifetime.end.p0(i64 8, ptr %8) #6
  call void @llvm.lifetime.end.p0(i64 8, ptr %7) #6
  ret void
}